; Function Attrs: mustprogress uwtable
define hidden noundef zeroext i1 @_ZN18OpenImageIO_v2_6_09SgiOutput5closeEv(ptr noundef nonnull align 8 dereferenceable(272) %this) unnamed_addr #5 align 2 personality ptr @__gxx_personality_v0 {
entry:
  %agg.tmp = alloca %"struct.OpenImageIO_v2_6_0::TypeDesc", align 4
  %call = tail call noundef zeroext i1 @_ZNK18OpenImageIO_v2_6_011ImageOutput14ioproxy_openedEv(ptr noundef nonnull align 8 dereferenceable(184) %this)
  br i1 %call, label %if.end, label %if.then

if.then:                                          ; preds = %entry
  tail call void @_ZN18OpenImageIO_v2_6_011ImageOutput13ioproxy_clearEv(ptr noundef nonnull align 8 dereferenceable(184) %this)
  br label %return

if.end:                                           ; preds = %entry
  %tile_width = getelementptr inbounds i8, ptr %this, i64 56
  %0 = load i32, ptr %tile_width, align 8
  %tobool.not = icmp eq i32 %0, 0
  br i1 %tobool.not, label %if.end19, label %if.then2

if.then2:                                         ; preds = %if.end
  %m_tilebuffer = getelementptr inbounds i8, ptr %this, i64 248
  %_M_finish.i = getelementptr inbounds i8, ptr %this, i64 256
  %1 = load ptr, ptr %_M_finish.i, align 8
  %2 = load ptr, ptr %m_tilebuffer, align 8
  %tobool4.not = icmp eq ptr %1, %2
  br i1 %tobool4.not, label %cond.false, label %cond.end

cond.false:                                       ; preds = %if.then2
  %3 = load ptr, ptr @stderr, align 8
  %call5 = tail call i32 (ptr, ptr, ...) @fprintf(ptr noundef %3, ptr noundef nonnull @.str.10, ptr noundef nonnull @.str.11, i32 noundef 164, ptr noundef nonnull @__FUNCTION__._ZN18OpenImageIO_v2_6_09SgiOutput5closeEv, ptr noundef nonnull @.str.12) #25
  %.pre = load ptr, ptr %m_tilebuffer, align 8
  br label %cond.end

cond.end:                                         ; preds = %if.then2, %cond.false
  %4 = phi ptr [ %2, %if.then2 ], [ %.pre, %cond.false ]
  %y = getelementptr inbounds i8, ptr %this, i64 12
  %5 = load i32, ptr %y, align 4
  %height = getelementptr inbounds i8, ptr %this, i64 24
  %6 = load i32, ptr %height, align 8
  %add = add nsw i32 %6, %5
  %format = getelementptr inbounds i8, ptr %this, i64 72
  %7 = load i8, ptr %format, align 8
  store i8 %7, ptr %agg.tmp, align 4
  %aggregate.i = getelementptr inbounds i8, ptr %agg.tmp, i64 1
  %aggregate3.i = getelementptr inbounds i8, ptr %this, i64 73
  %8 = load i8, ptr %aggregate3.i, align 1
  store i8 %8, ptr %aggregate.i, align 1
  %vecsemantics.i = getelementptr inbounds i8, ptr %agg.tmp, i64 2
  %vecsemantics4.i = getelementptr inbounds i8, ptr %this, i64 74
  %9 = load i8, ptr %vecsemantics4.i, align 2
  store i8 %9, ptr %vecsemantics.i, align 2
  %reserved.i = getelementptr inbounds i8, ptr %agg.tmp, i64 3
  store i8 0, ptr %reserved.i, align 1
  %arraylen.i = getelementptr inbounds i8, ptr %agg.tmp, i64 4
  %arraylen5.i = getelementptr inbounds i8, ptr %this, i64 76
  %10 = load i32, ptr %arraylen5.i, align 4
  store i32 %10, ptr %arraylen.i, align 4
  %call13 = call noundef zeroext i1 @_ZN18OpenImageIO_v2_6_011ImageOutput15write_scanlinesEiiiNS_8TypeDescEPKvll(ptr noundef nonnull align 8 dereferenceable(184) %this, i32 noundef %5, i32 noundef %add, i32 noundef 0, ptr noundef nonnull %agg.tmp, ptr noundef nonnull %4, i64 noundef -9223372036854775808, i64 noundef -9223372036854775808)
  %11 = load ptr, ptr %m_tilebuffer, align 8
  %12 = load ptr, ptr %_M_finish.i, align 8
  %tobool.not.i.i = icmp eq ptr %12, %11
  br i1 %tobool.not.i.i, label %_ZNSt6vectorIhSaIhEE5clearEv.exit, label %invoke.cont.i.i

invoke.cont.i.i:                                  ; preds = %cond.end
  store ptr %11, ptr %_M_finish.i, align 8
  br label %_ZNSt6vectorIhSaIhEE5clearEv.exit

_ZNSt6vectorIhSaIhEE5clearEv.exit:                ; preds = %cond.end, %invoke.cont.i.i
  %call.i = call noundef zeroext i1 @_ZNSt6vectorIhSaIhEE16_M_shrink_to_fitEv(ptr noundef nonnull align 8 dereferenceable(24) %m_tilebuffer)
  br label %if.end19

if.end19:                                         ; preds = %_ZNSt6vectorIhSaIhEE5clearEv.exit, %if.end
  %ok.0 = phi i1 [ %call13, %_ZNSt6vectorIhSaIhEE5clearEv.exit ], [ true, %if.end ]
  call void @_ZN18OpenImageIO_v2_6_011ImageOutput13ioproxy_clearEv(ptr noundef nonnull align 8 dereferenceable(184) %this)
  br label %return

return:                                           ; preds = %if.end19, %if.then
  %retval.0 = phi i1 [ %ok.0, %if.end19 ], [ true, %if.then ]
  ret i1 %retval.0
}